; Function Attrs: mustprogress nounwind uwtable
define hidden noundef ptr @_ZN27java_lang_invoke_MemberName8vmtargetEP7oopDesc(ptr noundef %0) local_unnamed_addr #0 align 2 {
  %2 = load i32, ptr @_ZN27java_lang_invoke_MemberName14_method_offsetE, align 4
  %3 = sext i32 %2 to i64
  %4 = load ptr, ptr @_ZN14AccessInternal15RuntimeDispatchILm286790EP7oopDescLNS_11BarrierTypeE3EE13_load_at_funcE, align 8
  %5 = tail call noundef ptr %4(ptr noundef nonnull %0, i64 noundef %3) #19
  %6 = icmp eq ptr %5, null
  br i1 %6, label %10, label %7

7:                                                ; preds = %1
  %8 = load i32, ptr @_ZN35java_lang_invoke_ResolvedMethodName16_vmtarget_offsetE, align 4
  %9 = tail call noundef ptr @_ZNK7oopDesc13address_fieldEi(ptr noundef nonnull align 8 dereferenceable(16) %5, i32 noundef %8) #19
  br label %10

10:                                               ; preds = %1, %7
  %11 = phi ptr [ %9, %7 ], [ null, %1 ]
  ret ptr %11
}